target datalayout = "e-m:e-p270:32:32-p271:32:32-p272:64:64-i64:64-i128:128-f80:128-n8:16:32:64-S128"
target triple = "x86_64-pc-linux-gnu"

%struct.DdManager = type { %struct.DdNode, ptr, ptr, ptr, ptr, ptr, ptr, ptr, i32, i32, double, double, double, i32, i32, i32, i32, i32, i32, ptr, ptr, %struct.DdSubtable, i32, i32, i32, i32, i32, i32, i32, double, i32, i32, i32, ptr, i64, double, i32, ptr, ptr, ptr, ptr, ptr, ptr, ptr, i32, ptr, ptr, ptr, ptr, ptr, ptr, i32, i32, i32, double, i32, i32, i32, i32, double, double, i32, i32, i32, i32, i32, i32, i32, i32, i32, ptr, ptr, i32, i32, i32, i32, i32, i32, ptr, ptr, ptr, ptr, ptr, ptr, ptr, ptr, i32, i64, i64, i64, i32, i64, i64, double, double, double, double, double, double, i32, ptr, ptr, i64 }
%struct.DdNode = type { i32, i32, ptr, %union.anon, i64 }
%union.anon = type { %struct.DdChildren }
%struct.DdChildren = type { ptr, ptr }
%struct.DdSubtable = type { ptr, i32, i32, i32, i32, i32, i32, i32, i32, i32, i32, i32 }
%struct.DdLocalCache = type { ptr, i32, i32, i32, i32, double, double, double, i32, ptr, ptr }

; Function Attrs: nounwind uwtable
define internal void @cuddLocalCacheRemoveFromList(ptr noundef %0) #0 {
  %2 = alloca ptr, align 8
  %3 = alloca ptr, align 8
  %4 = alloca ptr, align 8
  %5 = alloca ptr, align 8
  %6 = alloca i32, align 4
  store ptr %0, ptr %2, align 8, !tbaa !10
  call void @llvm.lifetime.start.p0(i64 8, ptr %3) #10
  %7 = load ptr, ptr %2, align 8, !tbaa !10
  %8 = getelementptr inbounds nuw %struct.DdLocalCache, ptr %7, i32 0, i32 9
  %9 = load ptr, ptr %8, align 8, !tbaa !28
  store ptr %9, ptr %3, align 8, !tbaa !3
  call void @llvm.lifetime.start.p0(i64 8, ptr %4) #10
  call void @llvm.lifetime.start.p0(i64 8, ptr %5) #10
  %10 = load ptr, ptr %3, align 8, !tbaa !3
  %11 = getelementptr inbounds nuw %struct.DdManager, ptr %10, i32 0, i32 78
  store ptr %11, ptr %4, align 8, !tbaa !45
  %12 = load ptr, ptr %3, align 8, !tbaa !3
  %13 = getelementptr inbounds nuw %struct.DdManager, ptr %12, i32 0, i32 78
  %14 = load ptr, ptr %13, align 8, !tbaa !43
  store ptr %14, ptr %5, align 8, !tbaa !10
  br label %15

15:                                               ; preds = %27, %1
  %16 = load ptr, ptr %5, align 8, !tbaa !10
  %17 = icmp ne ptr %16, null
  br i1 %17, label %18, label %33

18:                                               ; preds = %15
  %19 = load ptr, ptr %5, align 8, !tbaa !10
  %20 = load ptr, ptr %2, align 8, !tbaa !10
  %21 = icmp eq ptr %19, %20
  br i1 %21, label %22, label %27

22:                                               ; preds = %18
  %23 = load ptr, ptr %5, align 8, !tbaa !10
  %24 = getelementptr inbounds nuw %struct.DdLocalCache, ptr %23, i32 0, i32 10
  %25 = load ptr, ptr %24, align 8, !tbaa !44
  %26 = load ptr, ptr %4, align 8, !tbaa !45
  store ptr %25, ptr %26, align 8, !tbaa !10
  store i32 1, ptr %6, align 4
  br label %34

27:                                               ; preds = %18
  %28 = load ptr, ptr %5, align 8, !tbaa !10
  %29 = getelementptr inbounds nuw %struct.DdLocalCache, ptr %28, i32 0, i32 10
  store ptr %29, ptr %4, align 8, !tbaa !45
  %30 = load ptr, ptr %5, align 8, !tbaa !10
  %31 = getelementptr inbounds nuw %struct.DdLocalCache, ptr %30, i32 0, i32 10
  %32 = load ptr, ptr %31, align 8, !tbaa !44
  store ptr %32, ptr %5, align 8, !tbaa !10
  br label %15, !llvm.loop !47

33:                                               ; preds = %15
  store i32 1, ptr %6, align 4
  br label %34

34:                                               ; preds = %33, %22
  call void @llvm.lifetime.end.p0(i64 8, ptr %5) #10
  call void @llvm.lifetime.end.p0(i64 8, ptr %4) #10
  call void @llvm.lifetime.end.p0(i64 8, ptr %3) #10
  ret void
}

; Function Attrs: nounwind uwtable
define void @cuddLocalCacheQuit(ptr noundef %0) #0 {
  %2 = alloca ptr, align 8
  store ptr %0, ptr %2, align 8, !tbaa !10
  %3 = load ptr, ptr %2, align 8, !tbaa !10
  %4 = getelementptr inbounds nuw %struct.DdLocalCache, ptr %3, i32 0, i32 3
  %5 = load i32, ptr %4, align 8, !tbaa !35
  %6 = load ptr, ptr %2, align 8, !tbaa !10
  %7 = getelementptr inbounds nuw %struct.DdLocalCache, ptr %6, i32 0, i32 1
  %8 = load i32, ptr %7, align 8, !tbaa !32
  %9 = mul i32 %5, %8
  %10 = zext i32 %9 to i64
  %11 = add i64 %10, 72
  %12 = load ptr, ptr %2, align 8, !tbaa !10
  %13 = getelementptr inbounds nuw %struct.DdLocalCache, ptr %12, i32 0, i32 9
  %14 = load ptr, ptr %13, align 8, !tbaa !28
  %15 = getelementptr inbounds nuw %struct.DdManager, ptr %14, i32 0, i32 87
  %16 = load i64, ptr %15, align 8, !tbaa !42
  %17 = sub i64 %16, %11
  store i64 %17, ptr %15, align 8, !tbaa !42
  %18 = load ptr, ptr %2, align 8, !tbaa !10
  call void @cuddLocalCacheRemoveFromList(ptr noundef %18)
  %19 = load ptr, ptr %2, align 8, !tbaa !10
  %20 = getelementptr inbounds nuw %struct.DdLocalCache, ptr %19, i32 0, i32 0
  %21 = load ptr, ptr %20, align 8, !tbaa !34
  %22 = icmp ne ptr %21, null
  br i1 %22, label %23, label %29

23:                                               ; preds = %1
  %24 = load ptr, ptr %2, align 8, !tbaa !10
  %25 = getelementptr inbounds nuw %struct.DdLocalCache, ptr %24, i32 0, i32 0
  %26 = load ptr, ptr %25, align 8, !tbaa !34
  call void @free(ptr noundef %26) #10
  %27 = load ptr, ptr %2, align 8, !tbaa !10
  %28 = getelementptr inbounds nuw %struct.DdLocalCache, ptr %27, i32 0, i32 0
  store ptr null, ptr %28, align 8, !tbaa !34
  br label %30

29:                                               ; preds = %1
  br label %30

30:                                               ; preds = %29, %23
  %31 = load ptr, ptr %2, align 8, !tbaa !10
  %32 = icmp ne ptr %31, null
  br i1 %32, label %33, label %35

33:                                               ; preds = %30
  %34 = load ptr, ptr %2, align 8, !tbaa !10
  call void @free(ptr noundef %34) #10
  store ptr null, ptr %2, align 8, !tbaa !10
  br label %36

35:                                               ; preds = %30
  br label %36

36:                                               ; preds = %35, %33
  ret void
}