; Function Attrs: nounwind uwtable
define void @cuddLocalCacheQuit(ptr noundef %0) local_unnamed_addr #0 {
  %2 = getelementptr inbounds nuw i8, ptr %0, i64 16
  %3 = load i32, ptr %2, align 8, !tbaa !32
  %4 = getelementptr inbounds nuw i8, ptr %0, i64 8
  %5 = load i32, ptr %4, align 8, !tbaa !29
  %6 = mul i32 %5, %3
  %7 = zext i32 %6 to i64
  %8 = getelementptr inbounds nuw i8, ptr %0, i64 56
  %9 = load ptr, ptr %8, align 8, !tbaa !24
  %10 = getelementptr inbounds nuw i8, ptr %9, i64 632
  %11 = load i64, ptr %10, align 8, !tbaa !39
  %reass.sub = sub i64 %11, %7
  %12 = add i64 %reass.sub, -72
  store i64 %12, ptr %10, align 8, !tbaa !39
  %13 = getelementptr inbounds nuw i8, ptr %9, i64 560
  %.013.i = load ptr, ptr %13, align 8, !tbaa !42
  %.not14.i = icmp eq ptr %.013.i, null
  br i1 %.not14.i, label %cuddLocalCacheRemoveFromList.exit, label %.lr.ph.i.preheader

.lr.ph.i.preheader:                               ; preds = %1
  %14 = icmp eq ptr %.013.i, %0
  br i1 %14, label %.lr.ph.i._crit_edge, label %.lr.ph

.lr.ph.i:                                         ; preds = %.lr.ph
  %15 = icmp eq ptr %.0.i, %0
  br i1 %15, label %.lr.ph.i._crit_edge.loopexit, label %.lr.ph, !llvm.loop !43

.lr.ph.i._crit_edge.loopexit:                     ; preds = %.lr.ph.i
  %16 = getelementptr inbounds nuw i8, ptr %.016.i12, i64 64
  br label %.lr.ph.i._crit_edge

.lr.ph.i._crit_edge:                              ; preds = %.lr.ph.i._crit_edge.loopexit, %.lr.ph.i.preheader
  %.016.i.lcssa = phi ptr [ %.013.i, %.lr.ph.i.preheader ], [ %.0.i, %.lr.ph.i._crit_edge.loopexit ]
  %.01015.i.lcssa = phi ptr [ %13, %.lr.ph.i.preheader ], [ %16, %.lr.ph.i._crit_edge.loopexit ]
  %17 = getelementptr inbounds nuw i8, ptr %.016.i.lcssa, i64 64
  %18 = load ptr, ptr %17, align 8, !tbaa !41
  store ptr %18, ptr %.01015.i.lcssa, align 8, !tbaa !42
  br label %cuddLocalCacheRemoveFromList.exit

.lr.ph:                                           ; preds = %.lr.ph.i.preheader, %.lr.ph.i
  %.016.i12 = phi ptr [ %.0.i, %.lr.ph.i ], [ %.013.i, %.lr.ph.i.preheader ]
  %19 = getelementptr inbounds nuw i8, ptr %.016.i12, i64 64
  %.0.i = load ptr, ptr %19, align 8, !tbaa !42
  %.not.i = icmp eq ptr %.0.i, null
  br i1 %.not.i, label %cuddLocalCacheRemoveFromList.exit, label %.lr.ph.i, !llvm.loop !43

cuddLocalCacheRemoveFromList.exit:                ; preds = %.lr.ph, %1, %.lr.ph.i._crit_edge
  %20 = load ptr, ptr %0, align 8, !tbaa !31
  %.not = icmp eq ptr %20, null
  br i1 %.not, label %22, label %21

21:                                               ; preds = %cuddLocalCacheRemoveFromList.exit
  tail call void @free(ptr noundef nonnull %20) #13
  br label %22

22:                                               ; preds = %21, %cuddLocalCacheRemoveFromList.exit
  tail call void @free(ptr noundef nonnull %0) #13
  ret void
}